target datalayout = "e-m:e-p270:32:32-p271:32:32-p272:64:64-i64:64-i128:128-f80:128-n8:16:32:64-S128"
target triple = "x86_64-pc-linux-gnu"

%struct.ExprEvalStep = type { i64, ptr, ptr, %union.anon }
%union.anon = type { %struct.anon.23 }
%struct.anon.23 = type { ptr, ptr, i32, i32, ptr, ptr }
%struct.Expr = type { i32 }
%struct.anon.35 = type { ptr }
%struct.JsonConstructorExprState = type { ptr, ptr, ptr, ptr, ptr, i32 }
%struct.JsonConstructorExpr = type { %struct.Expr, i32, ptr, ptr, ptr, ptr, i8, i8, i32 }
%struct.JsonReturning = type { i32, ptr, i32, i32 }
%struct.JsonFormat = type { i32, i32, i32, i32 }
%struct.anon.51 = type { i32, i32 }

@.str.1 = private unnamed_addr constant [17 x i8] c"execExprInterp.c\00", align 1
@.str.19 = private unnamed_addr constant [36 x i8] c"invalid JsonConstructorExpr type %d\00", align 1
@__func__.ExecEvalJsonConstructor = private unnamed_addr constant [24 x i8] c"ExecEvalJsonConstructor\00", align 1

; Function Attrs: inlinehint nounwind uwtable
define internal ptr @DatumGetPointer(i64 noundef %0) #2 {
  %2 = alloca i64, align 8
  store i64 %0, ptr %2, align 8
  %3 = load i64, ptr %2, align 8
  %4 = inttoptr i64 %3 to ptr
  ret ptr %4
}

; Function Attrs: nounwind uwtable
define dso_local void @ExecEvalJsonConstructor(ptr noundef %0, ptr noundef %1, ptr noundef %2) #0 {
  %4 = alloca ptr, align 8
  %5 = alloca ptr, align 8
  %6 = alloca ptr, align 8
  %7 = alloca i64, align 8
  %8 = alloca ptr, align 8
  %9 = alloca ptr, align 8
  %10 = alloca i8, align 1
  %11 = alloca i8, align 1
  %12 = alloca i64, align 8
  %13 = alloca i32, align 4
  %14 = alloca i32, align 4
  %15 = alloca i64, align 8
  %16 = alloca ptr, align 8
  store ptr %0, ptr %4, align 8
  store ptr %1, ptr %5, align 8
  store ptr %2, ptr %6, align 8
  call void @llvm.lifetime.start.p0(i64 8, ptr %7) #11
  call void @llvm.lifetime.start.p0(i64 8, ptr %8) #11
  %17 = load ptr, ptr %5, align 8
  %18 = getelementptr inbounds nuw %struct.ExprEvalStep, ptr %17, i32 0, i32 3
  %19 = getelementptr inbounds nuw %struct.anon.35, ptr %18, i32 0, i32 0
  %20 = load ptr, ptr %19, align 8
  store ptr %20, ptr %8, align 8
  call void @llvm.lifetime.start.p0(i64 8, ptr %9) #11
  %21 = load ptr, ptr %8, align 8
  %22 = getelementptr inbounds nuw %struct.JsonConstructorExprState, ptr %21, i32 0, i32 0
  %23 = load ptr, ptr %22, align 8
  store ptr %23, ptr %9, align 8
  call void @llvm.lifetime.start.p0(i64 1, ptr %10) #11
  %24 = load ptr, ptr %9, align 8
  %25 = getelementptr inbounds nuw %struct.JsonConstructorExpr, ptr %24, i32 0, i32 5
  %26 = load ptr, ptr %25, align 8
  %27 = getelementptr inbounds nuw %struct.JsonReturning, ptr %26, i32 0, i32 1
  %28 = load ptr, ptr %27, align 8
  %29 = getelementptr inbounds nuw %struct.JsonFormat, ptr %28, i32 0, i32 1
  %30 = load i32, ptr %29, align 4
  %31 = icmp eq i32 %30, 2
  %32 = zext i1 %31 to i8
  store i8 %32, ptr %10, align 1
  call void @llvm.lifetime.start.p0(i64 1, ptr %11) #11
  store i8 0, ptr %11, align 1
  %33 = load ptr, ptr %9, align 8
  %34 = getelementptr inbounds nuw %struct.JsonConstructorExpr, ptr %33, i32 0, i32 1
  %35 = load i32, ptr %34, align 4
  %36 = icmp eq i32 %35, 2
  br i1 %36, label %37, label %60

37:                                               ; preds = %3
  %38 = load i8, ptr %10, align 1, !range !7, !noundef !8
  %39 = trunc i8 %38 to i1
  %40 = select i1 %39, ptr @jsonb_build_array_worker, ptr @json_build_array_worker
  %41 = load ptr, ptr %8, align 8
  %42 = getelementptr inbounds nuw %struct.JsonConstructorExprState, ptr %41, i32 0, i32 5
  %43 = load i32, ptr %42, align 8
  %44 = load ptr, ptr %8, align 8
  %45 = getelementptr inbounds nuw %struct.JsonConstructorExprState, ptr %44, i32 0, i32 1
  %46 = load ptr, ptr %45, align 8
  %47 = load ptr, ptr %8, align 8
  %48 = getelementptr inbounds nuw %struct.JsonConstructorExprState, ptr %47, i32 0, i32 2
  %49 = load ptr, ptr %48, align 8
  %50 = load ptr, ptr %8, align 8
  %51 = getelementptr inbounds nuw %struct.JsonConstructorExprState, ptr %50, i32 0, i32 3
  %52 = load ptr, ptr %51, align 8
  %53 = load ptr, ptr %8, align 8
  %54 = getelementptr inbounds nuw %struct.JsonConstructorExprState, ptr %53, i32 0, i32 0
  %55 = load ptr, ptr %54, align 8
  %56 = getelementptr inbounds nuw %struct.JsonConstructorExpr, ptr %55, i32 0, i32 6
  %57 = load i8, ptr %56, align 8, !range !7, !noundef !8
  %58 = trunc i8 %57 to i1
  %59 = call i64 %40(i32 noundef %43, ptr noundef %46, ptr noundef %49, ptr noundef %52, i1 noundef zeroext %58)
  store i64 %59, ptr %7, align 8
  br label %189

60:                                               ; preds = %3
  %61 = load ptr, ptr %9, align 8
  %62 = getelementptr inbounds nuw %struct.JsonConstructorExpr, ptr %61, i32 0, i32 1
  %63 = load i32, ptr %62, align 4
  %64 = icmp eq i32 %63, 1
  br i1 %64, label %65, label %94

65:                                               ; preds = %60
  %66 = load i8, ptr %10, align 1, !range !7, !noundef !8
  %67 = trunc i8 %66 to i1
  %68 = select i1 %67, ptr @jsonb_build_object_worker, ptr @json_build_object_worker
  %69 = load ptr, ptr %8, align 8
  %70 = getelementptr inbounds nuw %struct.JsonConstructorExprState, ptr %69, i32 0, i32 5
  %71 = load i32, ptr %70, align 8
  %72 = load ptr, ptr %8, align 8
  %73 = getelementptr inbounds nuw %struct.JsonConstructorExprState, ptr %72, i32 0, i32 1
  %74 = load ptr, ptr %73, align 8
  %75 = load ptr, ptr %8, align 8
  %76 = getelementptr inbounds nuw %struct.JsonConstructorExprState, ptr %75, i32 0, i32 2
  %77 = load ptr, ptr %76, align 8
  %78 = load ptr, ptr %8, align 8
  %79 = getelementptr inbounds nuw %struct.JsonConstructorExprState, ptr %78, i32 0, i32 3
  %80 = load ptr, ptr %79, align 8
  %81 = load ptr, ptr %8, align 8
  %82 = getelementptr inbounds nuw %struct.JsonConstructorExprState, ptr %81, i32 0, i32 0
  %83 = load ptr, ptr %82, align 8
  %84 = getelementptr inbounds nuw %struct.JsonConstructorExpr, ptr %83, i32 0, i32 6
  %85 = load i8, ptr %84, align 8, !range !7, !noundef !8
  %86 = trunc i8 %85 to i1
  %87 = load ptr, ptr %8, align 8
  %88 = getelementptr inbounds nuw %struct.JsonConstructorExprState, ptr %87, i32 0, i32 0
  %89 = load ptr, ptr %88, align 8
  %90 = getelementptr inbounds nuw %struct.JsonConstructorExpr, ptr %89, i32 0, i32 7
  %91 = load i8, ptr %90, align 1, !range !7, !noundef !8
  %92 = trunc i8 %91 to i1
  %93 = call i64 %68(i32 noundef %71, ptr noundef %74, ptr noundef %77, ptr noundef %80, i1 noundef zeroext %86, i1 noundef zeroext %92)
  store i64 %93, ptr %7, align 8
  br label %188

94:                                               ; preds = %60
  %95 = load ptr, ptr %9, align 8
  %96 = getelementptr inbounds nuw %struct.JsonConstructorExpr, ptr %95, i32 0, i32 1
  %97 = load i32, ptr %96, align 4
  %98 = icmp eq i32 %97, 6
  br i1 %98, label %99, label %139

99:                                               ; preds = %94
  %100 = load ptr, ptr %8, align 8
  %101 = getelementptr inbounds nuw %struct.JsonConstructorExprState, ptr %100, i32 0, i32 2
  %102 = load ptr, ptr %101, align 8
  %103 = getelementptr inbounds i8, ptr %102, i64 0
  %104 = load i8, ptr %103, align 1, !range !7, !noundef !8
  %105 = trunc i8 %104 to i1
  br i1 %105, label %106, label %107

106:                                              ; preds = %99
  store i64 0, ptr %7, align 8
  store i8 1, ptr %11, align 1
  br label %138

107:                                              ; preds = %99
  call void @llvm.lifetime.start.p0(i64 8, ptr %12) #11
  %108 = load ptr, ptr %8, align 8
  %109 = getelementptr inbounds nuw %struct.JsonConstructorExprState, ptr %108, i32 0, i32 1
  %110 = load ptr, ptr %109, align 8
  %111 = getelementptr inbounds i64, ptr %110, i64 0
  %112 = load i64, ptr %111, align 8
  store i64 %112, ptr %12, align 8
  call void @llvm.lifetime.start.p0(i64 4, ptr %13) #11
  %113 = load ptr, ptr %8, align 8
  %114 = getelementptr inbounds nuw %struct.JsonConstructorExprState, ptr %113, i32 0, i32 4
  %115 = load ptr, ptr %114, align 8
  %116 = getelementptr inbounds %struct.anon.51, ptr %115, i64 0
  %117 = getelementptr inbounds nuw %struct.anon.51, ptr %116, i32 0, i32 1
  %118 = load i32, ptr %117, align 4
  store i32 %118, ptr %13, align 4
  call void @llvm.lifetime.start.p0(i64 4, ptr %14) #11
  %119 = load ptr, ptr %8, align 8
  %120 = getelementptr inbounds nuw %struct.JsonConstructorExprState, ptr %119, i32 0, i32 4
  %121 = load ptr, ptr %120, align 8
  %122 = getelementptr inbounds %struct.anon.51, ptr %121, i64 0
  %123 = getelementptr inbounds nuw %struct.anon.51, ptr %122, i32 0, i32 0
  %124 = load i32, ptr %123, align 4
  store i32 %124, ptr %14, align 4
  %125 = load i8, ptr %10, align 1, !range !7, !noundef !8
  %126 = trunc i8 %125 to i1
  br i1 %126, label %127, label %132

127:                                              ; preds = %107
  %128 = load i64, ptr %12, align 8
  %129 = load i32, ptr %14, align 4
  %130 = load i32, ptr %13, align 4
  %131 = call i64 @datum_to_jsonb(i64 noundef %128, i32 noundef %129, i32 noundef %130)
  store i64 %131, ptr %7, align 8
  br label %137

132:                                              ; preds = %107
  %133 = load i64, ptr %12, align 8
  %134 = load i32, ptr %14, align 4
  %135 = load i32, ptr %13, align 4
  %136 = call i64 @datum_to_json(i64 noundef %133, i32 noundef %134, i32 noundef %135)
  store i64 %136, ptr %7, align 8
  br label %137

137:                                              ; preds = %132, %127
  call void @llvm.lifetime.end.p0(i64 4, ptr %14) #11
  call void @llvm.lifetime.end.p0(i64 4, ptr %13) #11
  call void @llvm.lifetime.end.p0(i64 8, ptr %12) #11
  br label %138

138:                                              ; preds = %137, %106
  br label %187

139:                                              ; preds = %94
  %140 = load ptr, ptr %9, align 8
  %141 = getelementptr inbounds nuw %struct.JsonConstructorExpr, ptr %140, i32 0, i32 1
  %142 = load i32, ptr %141, align 4
  %143 = icmp eq i32 %142, 5
  br i1 %143, label %144, label %172

144:                                              ; preds = %139
  %145 = load ptr, ptr %8, align 8
  %146 = getelementptr inbounds nuw %struct.JsonConstructorExprState, ptr %145, i32 0, i32 2
  %147 = load ptr, ptr %146, align 8
  %148 = getelementptr inbounds i8, ptr %147, i64 0
  %149 = load i8, ptr %148, align 1, !range !7, !noundef !8
  %150 = trunc i8 %149 to i1
  br i1 %150, label %151, label %152

151:                                              ; preds = %144
  store i64 0, ptr %7, align 8
  store i8 1, ptr %11, align 1
  br label %171

152:                                              ; preds = %144
  call void @llvm.lifetime.start.p0(i64 8, ptr %15) #11
  %153 = load ptr, ptr %8, align 8
  %154 = getelementptr inbounds nuw %struct.JsonConstructorExprState, ptr %153, i32 0, i32 1
  %155 = load ptr, ptr %154, align 8
  %156 = getelementptr inbounds i64, ptr %155, i64 0
  %157 = load i64, ptr %156, align 8
  store i64 %157, ptr %15, align 8
  call void @llvm.lifetime.start.p0(i64 8, ptr %16) #11
  %158 = load i64, ptr %15, align 8
  %159 = call ptr @DatumGetPointer(i64 noundef %158)
  %160 = call ptr @pg_detoast_datum(ptr noundef %159)
  store ptr %160, ptr %16, align 8
  %161 = load i8, ptr %10, align 1, !range !7, !noundef !8
  %162 = trunc i8 %161 to i1
  br i1 %162, label %163, label %166

163:                                              ; preds = %152
  %164 = load ptr, ptr %16, align 8
  %165 = call i64 @jsonb_from_text(ptr noundef %164, i1 noundef zeroext true)
  store i64 %165, ptr %7, align 8
  br label %170

166:                                              ; preds = %152
  %167 = load ptr, ptr %16, align 8
  %168 = call zeroext i1 @json_validate(ptr noundef %167, i1 noundef zeroext true, i1 noundef zeroext true)
  %169 = load i64, ptr %15, align 8
  store i64 %169, ptr %7, align 8
  br label %170

170:                                              ; preds = %166, %163
  call void @llvm.lifetime.end.p0(i64 8, ptr %16) #11
  call void @llvm.lifetime.end.p0(i64 8, ptr %15) #11
  br label %171

171:                                              ; preds = %170, %151
  br label %186

172:                                              ; preds = %139
  br label %173

173:                                              ; preds = %172
  br i1 true, label %174, label %176

174:                                              ; preds = %173
  %175 = call zeroext i1 @errstart_cold(i32 noundef 21, ptr noundef null) #12
  br i1 %175, label %178, label %183

176:                                              ; preds = %173
  %177 = call zeroext i1 @errstart(i32 noundef 21, ptr noundef null)
  br i1 %177, label %178, label %183

178:                                              ; preds = %176, %174
  %179 = load ptr, ptr %9, align 8
  %180 = getelementptr inbounds nuw %struct.JsonConstructorExpr, ptr %179, i32 0, i32 1
  %181 = load i32, ptr %180, align 4
  %182 = call i32 (ptr, ...) @errmsg_internal(ptr noundef @.str.19, i32 noundef %181)
  call void @errfinish(ptr noundef @.str.1, i32 noundef 4644, ptr noundef @__func__.ExecEvalJsonConstructor)
  br label %183

183:                                              ; preds = %178, %176, %174
  unreachable

184:                                              ; No predecessors!
  br label %185

185:                                              ; preds = %184
  br label %186

186:                                              ; preds = %185, %171
  br label %187

187:                                              ; preds = %186, %138
  br label %188

188:                                              ; preds = %187, %65
  br label %189

189:                                              ; preds = %188, %37
  %190 = load i64, ptr %7, align 8
  %191 = load ptr, ptr %5, align 8
  %192 = getelementptr inbounds nuw %struct.ExprEvalStep, ptr %191, i32 0, i32 1
  %193 = load ptr, ptr %192, align 8
  store i64 %190, ptr %193, align 8
  %194 = load i8, ptr %11, align 1, !range !7, !noundef !8
  %195 = trunc i8 %194 to i1
  %196 = load ptr, ptr %5, align 8
  %197 = getelementptr inbounds nuw %struct.ExprEvalStep, ptr %196, i32 0, i32 2
  %198 = load ptr, ptr %197, align 8
  %199 = zext i1 %195 to i8
  store i8 %199, ptr %198, align 1
  call void @llvm.lifetime.end.p0(i64 1, ptr %11) #11
  call void @llvm.lifetime.end.p0(i64 1, ptr %10) #11
  call void @llvm.lifetime.end.p0(i64 8, ptr %9) #11
  call void @llvm.lifetime.end.p0(i64 8, ptr %8) #11
  call void @llvm.lifetime.end.p0(i64 8, ptr %7) #11
  ret void
}