; Function Attrs: nounwind uwtable
define dso_local void @ExecEvalJsonConstructor(ptr readnone captures(none) %0, ptr noundef readonly captures(none) %1, ptr readnone captures(none) %2) local_unnamed_addr #0 {
  %4 = getelementptr inbounds nuw i8, ptr %1, i64 24
  %5 = load ptr, ptr %4, align 8
  %6 = load ptr, ptr %5, align 8
  %7 = getelementptr inbounds nuw i8, ptr %6, i64 32
  %8 = load ptr, ptr %7, align 8
  %9 = getelementptr inbounds nuw i8, ptr %8, i64 8
  %10 = load ptr, ptr %9, align 8
  %11 = getelementptr inbounds nuw i8, ptr %10, i64 4
  %12 = load i32, ptr %11, align 4
  %13 = icmp eq i32 %12, 2
  %14 = getelementptr inbounds nuw i8, ptr %6, i64 4
  %15 = load i32, ptr %14, align 4
  switch i32 %15, label %80 [
    i32 2, label %16
    i32 1, label %30
    i32 6, label %47
    i32 5, label %65
  ]

16:                                               ; preds = %3
  %17 = select i1 %13, ptr @jsonb_build_array_worker, ptr @json_build_array_worker
  %18 = getelementptr inbounds nuw i8, ptr %5, i64 40
  %19 = load i32, ptr %18, align 8
  %20 = getelementptr inbounds nuw i8, ptr %5, i64 8
  %21 = load ptr, ptr %20, align 8
  %22 = getelementptr inbounds nuw i8, ptr %5, i64 16
  %23 = load ptr, ptr %22, align 8
  %24 = getelementptr inbounds nuw i8, ptr %5, i64 24
  %25 = load ptr, ptr %24, align 8
  %26 = getelementptr inbounds nuw i8, ptr %6, i64 40
  %27 = load i8, ptr %26, align 8, !range !8, !noundef !9
  %28 = trunc nuw i8 %27 to i1
  %29 = tail call i64 %17(i32 noundef %19, ptr noundef %21, ptr noundef %23, ptr noundef %25, i1 noundef zeroext %28) #18, !callees !27
  br label %84

30:                                               ; preds = %3
  %31 = select i1 %13, ptr @jsonb_build_object_worker, ptr @json_build_object_worker
  %32 = getelementptr inbounds nuw i8, ptr %5, i64 40
  %33 = load i32, ptr %32, align 8
  %34 = getelementptr inbounds nuw i8, ptr %5, i64 8
  %35 = load ptr, ptr %34, align 8
  %36 = getelementptr inbounds nuw i8, ptr %5, i64 16
  %37 = load ptr, ptr %36, align 8
  %38 = getelementptr inbounds nuw i8, ptr %5, i64 24
  %39 = load ptr, ptr %38, align 8
  %40 = getelementptr inbounds nuw i8, ptr %6, i64 40
  %41 = load i8, ptr %40, align 8, !range !8, !noundef !9
  %42 = trunc nuw i8 %41 to i1
  %43 = getelementptr inbounds nuw i8, ptr %6, i64 41
  %44 = load i8, ptr %43, align 1, !range !8, !noundef !9
  %45 = trunc nuw i8 %44 to i1
  %46 = tail call i64 %31(i32 noundef %33, ptr noundef %35, ptr noundef %37, ptr noundef %39, i1 noundef zeroext %42, i1 noundef zeroext %45) #18, !callees !28
  br label %84

47:                                               ; preds = %3
  %48 = getelementptr inbounds nuw i8, ptr %5, i64 16
  %49 = load ptr, ptr %48, align 8
  %50 = load i8, ptr %49, align 1, !range !8, !noundef !9
  %51 = trunc nuw i8 %50 to i1
  br i1 %51, label %84, label %52

52:                                               ; preds = %47
  %53 = getelementptr inbounds nuw i8, ptr %5, i64 8
  %54 = load ptr, ptr %53, align 8
  %55 = load i64, ptr %54, align 8
  %56 = getelementptr inbounds nuw i8, ptr %5, i64 32
  %57 = load ptr, ptr %56, align 8
  %58 = getelementptr inbounds nuw i8, ptr %57, i64 4
  %59 = load i32, ptr %58, align 4
  %60 = load i32, ptr %57, align 4
  br i1 %13, label %61, label %63

61:                                               ; preds = %52
  %62 = tail call i64 @datum_to_jsonb(i64 noundef %55, i32 noundef %60, i32 noundef %59) #18
  br label %84

63:                                               ; preds = %52
  %64 = tail call i64 @datum_to_json(i64 noundef %55, i32 noundef %60, i32 noundef %59) #18
  br label %84

65:                                               ; preds = %3
  %66 = getelementptr inbounds nuw i8, ptr %5, i64 16
  %67 = load ptr, ptr %66, align 8
  %68 = load i8, ptr %67, align 1, !range !8, !noundef !9
  %69 = trunc nuw i8 %68 to i1
  br i1 %69, label %84, label %70

70:                                               ; preds = %65
  %71 = getelementptr inbounds nuw i8, ptr %5, i64 8
  %72 = load ptr, ptr %71, align 8
  %73 = load i64, ptr %72, align 8
  %74 = inttoptr i64 %73 to ptr
  %75 = tail call ptr @pg_detoast_datum(ptr noundef %74) #18
  br i1 %13, label %76, label %78

76:                                               ; preds = %70
  %77 = tail call i64 @jsonb_from_text(ptr noundef %75, i1 noundef zeroext true) #18
  br label %84

78:                                               ; preds = %70
  %79 = tail call zeroext i1 @json_validate(ptr noundef %75, i1 noundef zeroext true, i1 noundef zeroext true) #18
  br label %84

80:                                               ; preds = %3
  %81 = tail call zeroext i1 @errstart_cold(i32 noundef 21, ptr noundef null) #19
  tail call void @llvm.assume(i1 %81)
  %82 = load i32, ptr %14, align 4
  %83 = tail call i32 (ptr, ...) @errmsg_internal(ptr noundef nonnull @.str.19, i32 noundef %82) #18
  tail call void @errfinish(ptr noundef nonnull @.str.1, i32 noundef 4644, ptr noundef nonnull @__func__.ExecEvalJsonConstructor) #18
  unreachable

84:                                               ; preds = %76, %78, %65, %61, %63, %47, %30, %16
  %.042 = phi i8 [ 0, %16 ], [ 0, %30 ], [ 1, %47 ], [ 0, %63 ], [ 0, %61 ], [ 1, %65 ], [ 0, %78 ], [ 0, %76 ]
  %.0 = phi i64 [ %29, %16 ], [ %46, %30 ], [ 0, %47 ], [ %64, %63 ], [ %62, %61 ], [ 0, %65 ], [ %73, %78 ], [ %77, %76 ]
  %85 = getelementptr inbounds nuw i8, ptr %1, i64 8
  %86 = load ptr, ptr %85, align 8
  store i64 %.0, ptr %86, align 8
  %87 = getelementptr inbounds nuw i8, ptr %1, i64 16
  %88 = load ptr, ptr %87, align 8
  store i8 %.042, ptr %88, align 1
  ret void
}